; ModuleID = '32/1548.c'
source_filename = "32/1548.c"
target datalayout = "e-m:e-p270:32:32-p271:32:32-p272:64:64-i64:64-f80:128-n8:16:32:64-S128"
target triple = "x86_64-pc-linux-gnu"

@.str = private unnamed_addr constant [3 x i8] c"%c\00", align 1
@.str.1 = private unnamed_addr constant [2 x i8] c"\0A\00", align 1
@.str.2 = private unnamed_addr constant [3 x i8] c"%d\00", align 1
@.str.3 = private unnamed_addr constant [3 x i8] c"%s\00", align 1

; Function Attrs: noinline nounwind uwtable
define dso_local void @minus(i8* %0, i8* %1) #0 {
  %3 = alloca i8*, align 8
  %4 = alloca i8*, align 8
  %5 = alloca i32, align 4
  %6 = alloca i32, align 4
  %7 = alloca i32, align 4
  %8 = alloca i32, align 4
  %9 = alloca [100 x i8], align 16
  store i8* %0, i8** %3, align 8
  store i8* %1, i8** %4, align 8
  %10 = load i8*, i8** %3, align 8
  %11 = call i64 @strlen(i8* %10) #3
  %12 = trunc i64 %11 to i32
  store i32 %12, i32* %7, align 4
  %13 = load i8*, i8** %4, align 8
  %14 = call i64 @strlen(i8* %13) #3
  %15 = trunc i64 %14 to i32
  store i32 %15, i32* %8, align 4
  %16 = load i32, i32* %7, align 4
  %17 = sub nsw i32 %16, 1
  store i32 %17, i32* %5, align 4
  br label %18

18:                                               ; preds = %151, %2
  %19 = load i32, i32* %5, align 4
  %20 = load i32, i32* %7, align 4
  %21 = load i32, i32* %8, align 4
  %22 = sub nsw i32 %20, %21
  %23 = sub nsw i32 %22, 1
  %24 = icmp sgt i32 %19, %23
  br i1 %24, label %25, label %154

25:                                               ; preds = %18
  %26 = load i8*, i8** %3, align 8
  %27 = load i32, i32* %5, align 4
  %28 = sext i32 %27 to i64
  %29 = getelementptr inbounds i8, i8* %26, i64 %28
  %30 = load i8, i8* %29, align 1
  %31 = sext i8 %30 to i32
  %32 = icmp eq i32 %31, 47
  br i1 %32, label %33, label %53

33:                                               ; preds = %25
  %34 = load i8*, i8** %3, align 8
  %35 = load i32, i32* %5, align 4
  %36 = sext i32 %35 to i64
  %37 = getelementptr inbounds i8, i8* %34, i64 %36
  store i8 57, i8* %37, align 1
  %38 = load i8*, i8** %3, align 8
  %39 = load i32, i32* %5, align 4
  %40 = sub nsw i32 %39, 1
  %41 = sext i32 %40 to i64
  %42 = getelementptr inbounds i8, i8* %38, i64 %41
  %43 = load i8, i8* %42, align 1
  %44 = sext i8 %43 to i32
  %45 = add nsw i32 %44, 48
  %46 = sub nsw i32 %45, 49
  %47 = trunc i32 %46 to i8
  %48 = load i8*, i8** %3, align 8
  %49 = load i32, i32* %5, align 4
  %50 = sub nsw i32 %49, 1
  %51 = sext i32 %50 to i64
  %52 = getelementptr inbounds i8, i8* %48, i64 %51
  store i8 %47, i8* %52, align 1
  br label %53

53:                                               ; preds = %33, %25
  %54 = load i8*, i8** %3, align 8
  %55 = load i32, i32* %5, align 4
  %56 = sext i32 %55 to i64
  %57 = getelementptr inbounds i8, i8* %54, i64 %56
  %58 = load i8, i8* %57, align 1
  %59 = sext i8 %58 to i32
  %60 = load i8*, i8** %4, align 8
  %61 = load i32, i32* %5, align 4
  %62 = load i32, i32* %7, align 4
  %63 = sub nsw i32 %61, %62
  %64 = load i32, i32* %8, align 4
  %65 = add nsw i32 %63, %64
  %66 = sext i32 %65 to i64
  %67 = getelementptr inbounds i8, i8* %60, i64 %66
  %68 = load i8, i8* %67, align 1
  %69 = sext i8 %68 to i32
  %70 = icmp sge i32 %59, %69
  br i1 %70, label %71, label %94

71:                                               ; preds = %53
  %72 = load i8*, i8** %3, align 8
  %73 = load i32, i32* %5, align 4
  %74 = sext i32 %73 to i64
  %75 = getelementptr inbounds i8, i8* %72, i64 %74
  %76 = load i8, i8* %75, align 1
  %77 = sext i8 %76 to i32
  %78 = load i8*, i8** %4, align 8
  %79 = load i32, i32* %5, align 4
  %80 = load i32, i32* %7, align 4
  %81 = sub nsw i32 %79, %80
  %82 = load i32, i32* %8, align 4
  %83 = add nsw i32 %81, %82
  %84 = sext i32 %83 to i64
  %85 = getelementptr inbounds i8, i8* %78, i64 %84
  %86 = load i8, i8* %85, align 1
  %87 = sext i8 %86 to i32
  %88 = sub nsw i32 %77, %87
  %89 = add nsw i32 %88, 48
  %90 = trunc i32 %89 to i8
  %91 = load i32, i32* %5, align 4
  %92 = sext i32 %91 to i64
  %93 = getelementptr inbounds [100 x i8], [100 x i8]* %9, i64 0, i64 %92
  store i8 %90, i8* %93, align 1
  br label %94

94:                                               ; preds = %71, %53
  %95 = load i8*, i8** %3, align 8
  %96 = load i32, i32* %5, align 4
  %97 = sext i32 %96 to i64
  %98 = getelementptr inbounds i8, i8* %95, i64 %97
  %99 = load i8, i8* %98, align 1
  %100 = sext i8 %99 to i32
  %101 = load i8*, i8** %4, align 8
  %102 = load i32, i32* %5, align 4
  %103 = load i32, i32* %7, align 4
  %104 = sub nsw i32 %102, %103
  %105 = load i32, i32* %8, align 4
  %106 = add nsw i32 %104, %105
  %107 = sext i32 %106 to i64
  %108 = getelementptr inbounds i8, i8* %101, i64 %107
  %109 = load i8, i8* %108, align 1
  %110 = sext i8 %109 to i32
  %111 = icmp slt i32 %100, %110
  br i1 %111, label %112, label %150

112:                                              ; preds = %94
  %113 = load i8*, i8** %3, align 8
  %114 = load i32, i32* %5, align 4
  %115 = sext i32 %114 to i64
  %116 = getelementptr inbounds i8, i8* %113, i64 %115
  %117 = load i8, i8* %116, align 1
  %118 = sext i8 %117 to i32
  %119 = load i8*, i8** %4, align 8
  %120 = load i32, i32* %5, align 4
  %121 = load i32, i32* %7, align 4
  %122 = sub nsw i32 %120, %121
  %123 = load i32, i32* %8, align 4
  %124 = add nsw i32 %122, %123
  %125 = sext i32 %124 to i64
  %126 = getelementptr inbounds i8, i8* %119, i64 %125
  %127 = load i8, i8* %126, align 1
  %128 = sext i8 %127 to i32
  %129 = sub nsw i32 %118, %128
  %130 = add nsw i32 %129, 58
  %131 = trunc i32 %130 to i8
  %132 = load i32, i32* %5, align 4
  %133 = sext i32 %132 to i64
  %134 = getelementptr inbounds [100 x i8], [100 x i8]* %9, i64 0, i64 %133
  store i8 %131, i8* %134, align 1
  %135 = load i8*, i8** %3, align 8
  %136 = load i32, i32* %5, align 4
  %137 = sub nsw i32 %136, 1
  %138 = sext i32 %137 to i64
  %139 = getelementptr inbounds i8, i8* %135, i64 %138
  %140 = load i8, i8* %139, align 1
  %141 = sext i8 %140 to i32
  %142 = add nsw i32 %141, 48
  %143 = sub nsw i32 %142, 49
  %144 = trunc i32 %143 to i8
  %145 = load i8*, i8** %3, align 8
  %146 = load i32, i32* %5, align 4
  %147 = sub nsw i32 %146, 1
  %148 = sext i32 %147 to i64
  %149 = getelementptr inbounds i8, i8* %145, i64 %148
  store i8 %144, i8* %149, align 1
  br label %150

150:                                              ; preds = %112, %94
  br label %151

151:                                              ; preds = %150
  %152 = load i32, i32* %5, align 4
  %153 = add nsw i32 %152, -1
  store i32 %153, i32* %5, align 4
  br label %18

154:                                              ; preds = %18
  %155 = load i32, i32* %7, align 4
  %156 = load i32, i32* %8, align 4
  %157 = sub nsw i32 %155, %156
  %158 = sub nsw i32 %157, 1
  store i32 %158, i32* %5, align 4
  br label %159

159:                                              ; preds = %199, %154
  %160 = load i32, i32* %5, align 4
  %161 = icmp sge i32 %160, 0
  br i1 %161, label %162, label %202

162:                                              ; preds = %159
  %163 = load i8*, i8** %3, align 8
  %164 = load i32, i32* %5, align 4
  %165 = sext i32 %164 to i64
  %166 = getelementptr inbounds i8, i8* %163, i64 %165
  %167 = load i8, i8* %166, align 1
  %168 = sext i8 %167 to i32
  %169 = icmp eq i32 %168, 47
  br i1 %169, label %170, label %190

170:                                              ; preds = %162
  %171 = load i8*, i8** %3, align 8
  %172 = load i32, i32* %5, align 4
  %173 = sext i32 %172 to i64
  %174 = getelementptr inbounds i8, i8* %171, i64 %173
  store i8 57, i8* %174, align 1
  %175 = load i8*, i8** %3, align 8
  %176 = load i32, i32* %5, align 4
  %177 = sub nsw i32 %176, 1
  %178 = sext i32 %177 to i64
  %179 = getelementptr inbounds i8, i8* %175, i64 %178
  %180 = load i8, i8* %179, align 1
  %181 = sext i8 %180 to i32
  %182 = add nsw i32 %181, 48
  %183 = sub nsw i32 %182, 49
  %184 = trunc i32 %183 to i8
  %185 = load i8*, i8** %3, align 8
  %186 = load i32, i32* %5, align 4
  %187 = sub nsw i32 %186, 1
  %188 = sext i32 %187 to i64
  %189 = getelementptr inbounds i8, i8* %185, i64 %188
  store i8 %184, i8* %189, align 1
  br label %190

190:                                              ; preds = %170, %162
  %191 = load i8*, i8** %3, align 8
  %192 = load i32, i32* %5, align 4
  %193 = sext i32 %192 to i64
  %194 = getelementptr inbounds i8, i8* %191, i64 %193
  %195 = load i8, i8* %194, align 1
  %196 = load i32, i32* %5, align 4
  %197 = sext i32 %196 to i64
  %198 = getelementptr inbounds [100 x i8], [100 x i8]* %9, i64 0, i64 %197
  store i8 %195, i8* %198, align 1
  br label %199

199:                                              ; preds = %190
  %200 = load i32, i32* %5, align 4
  %201 = add nsw i32 %200, -1
  store i32 %201, i32* %5, align 4
  br label %159

202:                                              ; preds = %159
  store i32 0, i32* %5, align 4
  br label %203

203:                                              ; preds = %213, %202
  %204 = load i32, i32* %5, align 4
  store i32 %204, i32* %6, align 4
  %205 = load i32, i32* %5, align 4
  %206 = sext i32 %205 to i64
  %207 = getelementptr inbounds [100 x i8], [100 x i8]* %9, i64 0, i64 %206
  %208 = load i8, i8* %207, align 1
  %209 = sext i8 %208 to i32
  %210 = icmp ne i32 %209, 48
  br i1 %210, label %211, label %212

211:                                              ; preds = %203
  br label %216

212:                                              ; preds = %203
  br label %213

213:                                              ; preds = %212
  %214 = load i32, i32* %5, align 4
  %215 = add nsw i32 %214, 1
  store i32 %215, i32* %5, align 4
  br label %203

216:                                              ; preds = %211
  %217 = load i32, i32* %6, align 4
  store i32 %217, i32* %5, align 4
  br label %218

218:                                              ; preds = %229, %216
  %219 = load i32, i32* %5, align 4
  %220 = load i32, i32* %7, align 4
  %221 = icmp slt i32 %219, %220
  br i1 %221, label %222, label %232

222:                                              ; preds = %218
  %223 = load i32, i32* %5, align 4
  %224 = sext i32 %223 to i64
  %225 = getelementptr inbounds [100 x i8], [100 x i8]* %9, i64 0, i64 %224
  %226 = load i8, i8* %225, align 1
  %227 = sext i8 %226 to i32
  %228 = call i32 (i8*, ...) @printf(i8* getelementptr inbounds ([3 x i8], [3 x i8]* @.str, i64 0, i64 0), i32 %227)
  br label %229

229:                                              ; preds = %222
  %230 = load i32, i32* %5, align 4
  %231 = add nsw i32 %230, 1
  store i32 %231, i32* %5, align 4
  br label %218

232:                                              ; preds = %218
  %233 = call i32 (i8*, ...) @printf(i8* getelementptr inbounds ([2 x i8], [2 x i8]* @.str.1, i64 0, i64 0))
  ret void
}

; Function Attrs: nounwind readonly
declare dso_local i64 @strlen(i8*) #1

declare dso_local i32 @printf(i8*, ...) #2

; Function Attrs: noinline nounwind uwtable
define dso_local void @main() #0 {
  %1 = alloca i32, align 4
  %2 = alloca i32, align 4
  %3 = alloca [10 x [100 x i8]], align 16
  %4 = alloca [10 x [100 x i8]], align 16
  %5 = call i32 (i8*, ...) @__isoc99_scanf(i8* getelementptr inbounds ([3 x i8], [3 x i8]* @.str.2, i64 0, i64 0), i32* %1)
  store i32 0, i32* %2, align 4
  br label %6

6:                                                ; preds = %23, %0
  %7 = load i32, i32* %2, align 4
  %8 = load i32, i32* %1, align 4
  %9 = sub nsw i32 %8, 1
  %10 = icmp slt i32 %7, %9
  br i1 %10, label %11, label %26

11:                                               ; preds = %6
  %12 = load i32, i32* %2, align 4
  %13 = sext i32 %12 to i64
  %14 = getelementptr inbounds [10 x [100 x i8]], [10 x [100 x i8]]* %3, i64 0, i64 %13
  %15 = getelementptr inbounds [100 x i8], [100 x i8]* %14, i64 0, i64 0
  %16 = call i32 (i8*, ...) @__isoc99_scanf(i8* getelementptr inbounds ([3 x i8], [3 x i8]* @.str.3, i64 0, i64 0), i8* %15)
  %17 = load i32, i32* %2, align 4
  %18 = sext i32 %17 to i64
  %19 = getelementptr inbounds [10 x [100 x i8]], [10 x [100 x i8]]* %4, i64 0, i64 %18
  %20 = getelementptr inbounds [100 x i8], [100 x i8]* %19, i64 0, i64 0
  %21 = call i32 (i8*, ...) @__isoc99_scanf(i8* getelementptr inbounds ([3 x i8], [3 x i8]* @.str.3, i64 0, i64 0), i8* %20)
  %22 = call i32 (i8*, ...) @printf(i8* getelementptr inbounds ([2 x i8], [2 x i8]* @.str.1, i64 0, i64 0))
  br label %23

23:                                               ; preds = %11
  %24 = load i32, i32* %2, align 4
  %25 = add nsw i32 %24, 1
  store i32 %25, i32* %2, align 4
  br label %6

26:                                               ; preds = %6
  %27 = load i32, i32* %1, align 4
  %28 = sub nsw i32 %27, 1
  %29 = sext i32 %28 to i64
  %30 = getelementptr inbounds [10 x [100 x i8]], [10 x [100 x i8]]* %3, i64 0, i64 %29
  %31 = getelementptr inbounds [100 x i8], [100 x i8]* %30, i64 0, i64 0
  %32 = call i32 (i8*, ...) @__isoc99_scanf(i8* getelementptr inbounds ([3 x i8], [3 x i8]* @.str.3, i64 0, i64 0), i8* %31)
  %33 = load i32, i32* %1, align 4
  %34 = sub nsw i32 %33, 1
  %35 = sext i32 %34 to i64
  %36 = getelementptr inbounds [10 x [100 x i8]], [10 x [100 x i8]]* %4, i64 0, i64 %35
  %37 = getelementptr inbounds [100 x i8], [100 x i8]* %36, i64 0, i64 0
  %38 = call i32 (i8*, ...) @__isoc99_scanf(i8* getelementptr inbounds ([3 x i8], [3 x i8]* @.str.3, i64 0, i64 0), i8* %37)
  store i32 0, i32* %2, align 4
  br label %39

39:                                               ; preds = %52, %26
  %40 = load i32, i32* %2, align 4
  %41 = load i32, i32* %1, align 4
  %42 = icmp slt i32 %40, %41
  br i1 %42, label %43, label %55

43:                                               ; preds = %39
  %44 = load i32, i32* %2, align 4
  %45 = sext i32 %44 to i64
  %46 = getelementptr inbounds [10 x [100 x i8]], [10 x [100 x i8]]* %3, i64 0, i64 %45
  %47 = getelementptr inbounds [100 x i8], [100 x i8]* %46, i64 0, i64 0
  %48 = load i32, i32* %2, align 4
  %49 = sext i32 %48 to i64
  %50 = getelementptr inbounds [10 x [100 x i8]], [10 x [100 x i8]]* %4, i64 0, i64 %49
  %51 = getelementptr inbounds [100 x i8], [100 x i8]* %50, i64 0, i64 0
  call void @minus(i8* %47, i8* %51)
  br label %52

52:                                               ; preds = %43
  %53 = load i32, i32* %2, align 4
  %54 = add nsw i32 %53, 1
  store i32 %54, i32* %2, align 4
  br label %39

55:                                               ; preds = %39
  ret void
}

declare dso_local i32 @__isoc99_scanf(i8*, ...) #2


!llvm.module.flags = !{!0}
!llvm.ident = !{!1}

!0 = !{i32 1, !"wchar_size", i32 4}
!1 = !{!"clang version 10.0.0-4ubuntu1 "}
